	.file	"main.c"
	.text
.Ltext0:
	.section	.rodata
.LC2:
	.string	"%lu\n"
	.text
	.globl	simple_timing_test
	.type	simple_timing_test, @function
simple_timing_test:
.LFB2:
	.file 1 "main.c"
	.loc 1 38 0
	.cfi_startproc
	pushq	%rbp
	.cfi_def_cfa_offset 16
	.cfi_offset 6, -16
	movq	%rsp, %rbp
	.cfi_def_cfa_register 6
	subq	$48, %rsp
	.loc 1 40 0
	leaq	-32(%rbp), %rax
	movq	%rax, %rsi
	movl	$4, %edi
	call	clock_gettime
	.loc 1 41 0
	leaq	-16(%rbp), %rax
	movq	%rax, %rsi
	movl	$4, %edi
	call	clock_gettime
	.loc 1 42 0
	movq	-32(%rbp), %rax
	pxor	%xmm0, %xmm0
	cvtsi2sdq	%rax, %xmm0
	movsd	.LC0(%rip), %xmm1
	mulsd	%xmm0, %xmm1
	movq	-24(%rbp), %rax
	pxor	%xmm0, %xmm0
	cvtsi2sdq	%rax, %xmm0
	addsd	%xmm1, %xmm0
	ucomisd	.LC1(%rip), %xmm0
	jnb	.L2
	cvttsd2siq	%xmm0, %rax
	movq	%rax, -48(%rbp)
	jmp	.L3
.L2:
	movsd	.LC1(%rip), %xmm1
	subsd	%xmm1, %xmm0
	cvttsd2siq	%xmm0, %rax
	movq	%rax, -48(%rbp)
	movabsq	$-9223372036854775808, %rax
	xorq	%rax, -48(%rbp)
.L3:
	movq	-48(%rbp), %rax
	movq	%rax, -48(%rbp)
	.loc 1 43 0
	movq	-16(%rbp), %rax
	pxor	%xmm0, %xmm0
	cvtsi2sdq	%rax, %xmm0
	movsd	.LC0(%rip), %xmm1
	mulsd	%xmm0, %xmm1
	movq	-8(%rbp), %rax
	pxor	%xmm0, %xmm0
	cvtsi2sdq	%rax, %xmm0
	addsd	%xmm1, %xmm0
	ucomisd	.LC1(%rip), %xmm0
	jnb	.L4
	cvttsd2siq	%xmm0, %rax
	movq	%rax, -40(%rbp)
	jmp	.L5
.L4:
	movsd	.LC1(%rip), %xmm1
	subsd	%xmm1, %xmm0
	cvttsd2siq	%xmm0, %rax
	movq	%rax, -40(%rbp)
	movabsq	$-9223372036854775808, %rax
	xorq	%rax, -40(%rbp)
.L5:
	movq	-40(%rbp), %rax
	movq	%rax, -40(%rbp)
	.loc 1 44 0
	movq	-40(%rbp), %rax
	subq	-48(%rbp), %rax
	movq	%rax, %rsi
	movl	$.LC2, %edi
	movl	$0, %eax
	call	printf
	.loc 1 45 0
	leave
	.cfi_def_cfa 7, 8
	ret
	.cfi_endproc
.LFE2:
	.size	simple_timing_test, .-simple_timing_test
	.section	.rodata
.LC3:
	.string	"main.c"
.LC4:
	.string	"argc && argv"
	.text
	.globl	main
	.type	main, @function
main:
.LFB3:
	.loc 1 48 0
	.cfi_startproc
	pushq	%rbp
	.cfi_def_cfa_offset 16
	.cfi_offset 6, -16
	movq	%rsp, %rbp
	.cfi_def_cfa_register 6
	subq	$16, %rsp
	movl	%edi, -4(%rbp)
	movq	%rsi, -16(%rbp)
	.loc 1 49 0
	cmpl	$0, -4(%rbp)
	je	.L7
	.loc 1 49 0 is_stmt 0 discriminator 2
	cmpq	$0, -16(%rbp)
	jne	.L8
.L7:
	.loc 1 49 0 discriminator 3
	movl	$__PRETTY_FUNCTION__.3946, %ecx
	movl	$49, %edx
	movl	$.LC3, %esi
	movl	$.LC4, %edi
	call	__assert_fail
.L8:
	.loc 1 55 0 is_stmt 1
	movl	$0, %eax
	call	simple_timing_test
	.loc 1 57 0
	movl	$0, %eax
	.loc 1 58 0
	leave
	.cfi_def_cfa 7, 8
	ret
	.cfi_endproc
.LFE3:
	.size	main, .-main
	.section	.rodata
	.type	__PRETTY_FUNCTION__.3946, @object
	.size	__PRETTY_FUNCTION__.3946, 5
__PRETTY_FUNCTION__.3946:
	.string	"main"
	.align 8
.LC0:
	.long	0
	.long	1104006501
	.align 8
.LC1:
	.long	0
	.long	1138753536
	.text
.Letext0:
	.file 2 "/usr/include/x86_64-linux-gnu/bits/types.h"
	.file 3 "/usr/include/stdint.h"
	.file 4 "/usr/include/time.h"
	.section	.note.GNU-stack,"",@progbits
